#include <math.h>
#include <stdio.h>
#include <stdlib.h>
#include <string.h>

int main(){
   int k,n,i,j;
   double sum1,sum2,r[100],a[100];
   scanf("%d",&k);
   for(i=0;i<k;i++){
       scanf("%d",&n);
	   sum1=0;
	   for(j=0;j<n;j++){
	       scanf("%lf",&a[j]);
		   sum1+=a[j];
	   }
       sum1=sum1/n;
	   sum2=0;
	   for(j=0;j<n;j++){
	       sum2+=(a[j]-sum1)*(a[j]-sum1);
	   }
	   r[i]=sqrt(sum2/n);
   }
   for(i=0;i<k;i++){
      printf("%.5f\n",r[i]);
   }
return 0;
}
